; Function Attrs: inlinehint mustprogress optsize uwtable
define internal noundef ptr @_ZZN8nanobind6detail11func_createILb0ELb1EZNS_11bind_vectorISt6vectorISt10shared_ptrIZL38nanobind_init_test_stl_bind_vector_extRNS_7module_EE2ElESaIS8_EELNS_9rv_policyE1EJEEENS_6class_IT_JEEENS_6handleEPKcDpOT1_EUlNS_8handle_tISA_EEE_NS_3strEJSM_EJLm0EEJNS_5scopeENS_4nameENS_9is_methodEEEEP7_objectOT1_PFT2_DpT3_ESt16integer_sequenceImJXspT4_EEEDpRKT5_ENUlPvPST_PhSB_PNS0_12cleanup_listEE_8__invokeES17_S18_S19_SB_S1B_(ptr readnone captures(none) %0, ptr noundef readonly captures(none) %1, ptr readonly captures(none) %2, i32 %3, ptr readnone captures(none) %4) #12 align 2 personality ptr @__gxx_personality_v0 {
  %6 = alloca %"class.nanobind::str", align 8
  %7 = load ptr, ptr %1, align 8, !tbaa !89
  %8 = tail call noundef zeroext i1 @_ZN8nanobind6detail18nb_type_isinstanceEP7_objectPKSt9type_info(ptr noundef %7, ptr noundef nonnull @_ZTISt6vectorISt10shared_ptrIZL38nanobind_init_test_stl_bind_vector_extRN8nanobind7module_EE2ElESaIS5_EE) #27
  br i1 %8, label %9, label %_ZZN8nanobind6detail11func_createILb0ELb1EZNS_11bind_vectorISt6vectorISt10shared_ptrIZL38nanobind_init_test_stl_bind_vector_extRNS_7module_EE2ElESaIS8_EELNS_9rv_policyE1EJEEENS_6class_IT_JEEENS_6handleEPKcDpOT1_EUlNS_8handle_tISA_EEE_NS_3strEJSM_EJLm0EEJNS_5scopeENS_4nameENS_9is_methodEEEEP7_objectOT1_PFT2_DpT3_ESt16integer_sequenceImJXspT4_EEEDpRKT5_ENKUlPvPST_PhSB_PNS0_12cleanup_listEE_clES17_S18_S19_SB_S1B_.exit

9:                                                ; preds = %5
  call void @llvm.lifetime.start.p0(i64 8, ptr nonnull %6) #26
  %10 = tail call noundef ptr @_ZN8nanobind6detail9repr_listEP7_object(ptr noundef %7) #25, !noalias !440
  store ptr null, ptr %6, align 8, !tbaa !19
  %11 = call noundef nonnull align 8 dereferenceable(8) ptr @_ZNKR8nanobind6handle7dec_refEv(ptr noundef nonnull align 8 dereferenceable(8) %6) #27
  call void @llvm.lifetime.end.p0(i64 8, ptr nonnull %6) #26
  br label %_ZZN8nanobind6detail11func_createILb0ELb1EZNS_11bind_vectorISt6vectorISt10shared_ptrIZL38nanobind_init_test_stl_bind_vector_extRNS_7module_EE2ElESaIS8_EELNS_9rv_policyE1EJEEENS_6class_IT_JEEENS_6handleEPKcDpOT1_EUlNS_8handle_tISA_EEE_NS_3strEJSM_EJLm0EEJNS_5scopeENS_4nameENS_9is_methodEEEEP7_objectOT1_PFT2_DpT3_ESt16integer_sequenceImJXspT4_EEEDpRKT5_ENKUlPvPST_PhSB_PNS0_12cleanup_listEE_clES17_S18_S19_SB_S1B_.exit

_ZZN8nanobind6detail11func_createILb0ELb1EZNS_11bind_vectorISt6vectorISt10shared_ptrIZL38nanobind_init_test_stl_bind_vector_extRNS_7module_EE2ElESaIS8_EELNS_9rv_policyE1EJEEENS_6class_IT_JEEENS_6handleEPKcDpOT1_EUlNS_8handle_tISA_EEE_NS_3strEJSM_EJLm0EEJNS_5scopeENS_4nameENS_9is_methodEEEEP7_objectOT1_PFT2_DpT3_ESt16integer_sequenceImJXspT4_EEEDpRKT5_ENKUlPvPST_PhSB_PNS0_12cleanup_listEE_clES17_S18_S19_SB_S1B_.exit: ; preds = %5, %9
  %.0.i = phi ptr [ %10, %9 ], [ inttoptr (i64 1 to ptr), %5 ]
  ret ptr %.0.i
}